; Function Attrs: nounwind uwtable
define ptr @l_Array_foldlMUnsafe_fold___at_Lean_Elab_Tactic_expandLocation___spec__1(ptr noundef readonly captures(none) %0, i64 noundef %1, i64 noundef %2, ptr noundef %3) local_unnamed_addr #0 {
  %.not46 = icmp eq i64 %1, %2
  br i1 %.not46, label %._crit_edge, label %.lr.ph

.lr.ph:                                           ; preds = %4
  %5 = getelementptr inbounds nuw i8, ptr %0, i64 24
  br label %6

6:                                                ; preds = %.lr.ph, %lean_dec.exit28
  %.02348 = phi i64 [ %1, %.lr.ph ], [ %35, %lean_dec.exit28 ]
  %.02547 = phi ptr [ %3, %.lr.ph ], [ %.227, %lean_dec.exit28 ]
  %7 = getelementptr inbounds nuw [0 x ptr], ptr %5, i64 0, i64 %.02348
  %8 = load ptr, ptr %7, align 8, !tbaa !4
  %9 = ptrtoint ptr %8 to i64
  %10 = and i64 %9, 1
  %.not.i31.not = icmp eq i64 %10, 0
  br i1 %.not.i31.not, label %11, label %lean_inc.exit

11:                                               ; preds = %6
  %.val.i.i = load i32, ptr %8, align 4, !tbaa !8
  %12 = icmp sgt i32 %.val.i.i, 0
  br i1 %12, label %13, label %15, !prof !11

13:                                               ; preds = %11
  %14 = add nuw i32 %.val.i.i, 1
  store i32 %14, ptr %8, align 4, !tbaa !8
  br label %17

15:                                               ; preds = %11
  %.not.i.i = icmp eq i32 %.val.i.i, 0
  br i1 %.not.i.i, label %lean_inc.exit, label %16

16:                                               ; preds = %15
  tail call void @lean_inc_ref_cold(ptr noundef nonnull %8) #4
  %.val.i.pr = load i32, ptr %8, align 4, !tbaa !8
  br label %17

17:                                               ; preds = %13, %16
  %.val.i = phi i32 [ %14, %13 ], [ %.val.i.pr, %16 ]
  %18 = icmp sgt i32 %.val.i, 0
  br i1 %18, label %19, label %21, !prof !12

19:                                               ; preds = %17
  %20 = add nuw i32 %.val.i, 1
  store i32 %20, ptr %8, align 4, !tbaa !8
  br label %lean_inc.exit

21:                                               ; preds = %17
  %.not.i32 = icmp eq i32 %.val.i, 0
  br i1 %.not.i32, label %lean_inc.exit, label %22

22:                                               ; preds = %21
  tail call void @lean_inc_ref_cold(ptr noundef nonnull %8) #4
  br label %lean_inc.exit

lean_inc.exit:                                    ; preds = %15, %22, %21, %19, %6
  %23 = tail call ptr @l_Lean_Syntax_getKind(ptr noundef %8) #4
  %24 = load ptr, ptr @l_Array_foldlMUnsafe_fold___at_Lean_Elab_Tactic_expandLocation___spec__1___closed__5, align 8, !tbaa !4
  %25 = tail call zeroext i8 @lean_name_eq(ptr noundef %23, ptr noundef %24) #4
  %26 = ptrtoint ptr %23 to i64
  %27 = and i64 %26, 1
  %.not45 = icmp eq i64 %27, 0
  br i1 %.not45, label %28, label %lean_dec.exit

28:                                               ; preds = %lean_inc.exit
  %29 = load i32, ptr %23, align 4, !tbaa !8
  %30 = icmp sgt i32 %29, 1
  br i1 %30, label %31, label %33, !prof !11

31:                                               ; preds = %28
  %32 = add nsw i32 %29, -1
  store i32 %32, ptr %23, align 4, !tbaa !8
  br label %lean_dec.exit

33:                                               ; preds = %28
  %.not.i29 = icmp eq i32 %29, 0
  br i1 %.not.i29, label %lean_dec.exit, label %34

34:                                               ; preds = %33
  tail call void @lean_dec_ref_cold(ptr noundef nonnull %23) #4
  br label %lean_dec.exit

lean_dec.exit:                                    ; preds = %34, %33, %31, %lean_inc.exit
  %35 = add i64 %.02348, 1
  %36 = icmp eq i8 %25, 0
  br i1 %36, label %37, label %39

37:                                               ; preds = %lean_dec.exit
  %38 = tail call ptr @lean_array_push(ptr noundef %.02547, ptr noundef %8) #4
  br label %lean_dec.exit28

39:                                               ; preds = %lean_dec.exit
  br i1 %.not.i31.not, label %40, label %lean_dec.exit28

40:                                               ; preds = %39
  %41 = load i32, ptr %8, align 4, !tbaa !8
  %42 = icmp sgt i32 %41, 1
  br i1 %42, label %43, label %45, !prof !11

43:                                               ; preds = %40
  %44 = add nsw i32 %41, -1
  store i32 %44, ptr %8, align 4, !tbaa !8
  br label %lean_dec.exit28

45:                                               ; preds = %40
  %.not.i = icmp eq i32 %41, 0
  br i1 %.not.i, label %lean_dec.exit28, label %46

46:                                               ; preds = %45
  tail call void @lean_dec_ref_cold(ptr noundef nonnull %8) #4
  br label %lean_dec.exit28

lean_dec.exit28:                                  ; preds = %39, %43, %45, %46, %37
  %.227 = phi ptr [ %38, %37 ], [ %.02547, %46 ], [ %.02547, %45 ], [ %.02547, %43 ], [ %.02547, %39 ]
  %.not = icmp eq i64 %35, %2
  br i1 %.not, label %._crit_edge, label %6

._crit_edge:                                      ; preds = %lean_dec.exit28, %4
  %.025.lcssa = phi ptr [ %3, %4 ], [ %.227, %lean_dec.exit28 ]
  ret ptr %.025.lcssa
}